; Function Attrs: mustprogress uwtable
define hidden noundef zeroext i1 @_ZN6google8protobuf2io25CopyingInputStreamAdaptor4NextEPPKvPi(ptr noundef nonnull align 8 captures(none) dereferenceable(52) %0, ptr noundef writeonly captures(none) %1, ptr noundef writeonly captures(none) %2) unnamed_addr #6 align 2 {
  %4 = getelementptr inbounds nuw i8, ptr %0, i64 17
  %5 = load i8, ptr %4, align 1, !tbaa !47, !range !51, !noundef !52
  %6 = trunc nuw i8 %5 to i1
  br i1 %6, label %48, label %7

7:                                                ; preds = %3
  %8 = getelementptr inbounds nuw i8, ptr %0, i64 32
  %9 = load ptr, ptr %8, align 8, !tbaa !53
  %10 = icmp eq ptr %9, null
  br i1 %10, label %_ZNSt10unique_ptrIA_hSt14default_deleteIS0_EE5resetIPhvEEvT_.exit.i, label %_ZN6google8protobuf2io25CopyingInputStreamAdaptor22AllocateBufferIfNeededEv.exit

_ZNSt10unique_ptrIA_hSt14default_deleteIS0_EE5resetIPhvEEvT_.exit.i: ; preds = %7
  %11 = getelementptr inbounds nuw i8, ptr %0, i64 40
  %12 = load i32, ptr %11, align 8, !tbaa !48
  %narrow.i = tail call i32 @llvm.smax.i32(i32 %12, i32 -1)
  %13 = sext i32 %narrow.i to i64
  %14 = tail call noalias noundef nonnull ptr @_Znam(i64 noundef %13) #21
  store ptr %14, ptr %8, align 8, !tbaa !53
  br label %_ZN6google8protobuf2io25CopyingInputStreamAdaptor22AllocateBufferIfNeededEv.exit

_ZN6google8protobuf2io25CopyingInputStreamAdaptor22AllocateBufferIfNeededEv.exit: ; preds = %7, %_ZNSt10unique_ptrIA_hSt14default_deleteIS0_EE5resetIPhvEEvT_.exit.i
  %15 = phi ptr [ %9, %7 ], [ %14, %_ZNSt10unique_ptrIA_hSt14default_deleteIS0_EE5resetIPhvEEvT_.exit.i ]
  %16 = getelementptr inbounds nuw i8, ptr %0, i64 48
  %17 = load i32, ptr %16, align 8, !tbaa !50
  %18 = icmp sgt i32 %17, 0
  br i1 %18, label %19, label %27

19:                                               ; preds = %_ZN6google8protobuf2io25CopyingInputStreamAdaptor22AllocateBufferIfNeededEv.exit
  %20 = getelementptr inbounds nuw i8, ptr %0, i64 44
  %21 = load i32, ptr %20, align 4, !tbaa !49
  %22 = sext i32 %21 to i64
  %23 = getelementptr inbounds i8, ptr %15, i64 %22
  %24 = zext nneg i32 %17 to i64
  %25 = sub nsw i64 0, %24
  %26 = getelementptr inbounds i8, ptr %23, i64 %25
  store ptr %26, ptr %1, align 8, !tbaa !18
  store i32 %17, ptr %2, align 4, !tbaa !17
  store i32 0, ptr %16, align 8, !tbaa !50
  br label %48

27:                                               ; preds = %_ZN6google8protobuf2io25CopyingInputStreamAdaptor22AllocateBufferIfNeededEv.exit
  %28 = getelementptr inbounds nuw i8, ptr %0, i64 8
  %29 = load ptr, ptr %28, align 8, !tbaa !36
  %30 = getelementptr inbounds nuw i8, ptr %0, i64 40
  %31 = load i32, ptr %30, align 8, !tbaa !48
  %32 = load ptr, ptr %29, align 8, !tbaa !3
  %33 = getelementptr inbounds nuw i8, ptr %32, i64 16
  %34 = load ptr, ptr %33, align 8
  %35 = tail call noundef i32 %34(ptr noundef nonnull align 8 dereferenceable(8) %29, ptr noundef nonnull %15, i32 noundef %31)
  %36 = getelementptr inbounds nuw i8, ptr %0, i64 44
  store i32 %35, ptr %36, align 4, !tbaa !49
  %37 = icmp slt i32 %35, 1
  br i1 %37, label %38, label %42

38:                                               ; preds = %27
  %39 = icmp slt i32 %35, 0
  br i1 %39, label %40, label %41

40:                                               ; preds = %38
  store i8 1, ptr %4, align 1, !tbaa !47
  br label %41

41:                                               ; preds = %40, %38
  tail call void @_ZN6google8protobuf2io25CopyingInputStreamAdaptor10FreeBufferEv(ptr noundef nonnull align 8 dereferenceable(52) %0)
  br label %48

42:                                               ; preds = %27
  %43 = zext nneg i32 %35 to i64
  %44 = getelementptr inbounds nuw i8, ptr %0, i64 24
  %45 = load i64, ptr %44, align 8, !tbaa !54
  %46 = add nsw i64 %45, %43
  store i64 %46, ptr %44, align 8, !tbaa !54
  store i32 %35, ptr %2, align 4, !tbaa !17
  %47 = load ptr, ptr %8, align 8, !tbaa !53
  store ptr %47, ptr %1, align 8, !tbaa !18
  br label %48

48:                                               ; preds = %3, %42, %41, %19
  %.0 = phi i1 [ true, %19 ], [ false, %41 ], [ true, %42 ], [ false, %3 ]
  ret i1 %.0
}